; ModuleID = '9/1270.c'
source_filename = "9/1270.c"
target datalayout = "e-m:e-p270:32:32-p271:32:32-p272:64:64-i64:64-f80:128-n8:16:32:64-S128"
target triple = "x86_64-pc-linux-gnu"

%struct.patient = type { [10 x i8], i32 }

@.str = private unnamed_addr constant [3 x i8] c"%d\00", align 1
@.str.1 = private unnamed_addr constant [6 x i8] c"%s %d\00", align 1
@.str.2 = private unnamed_addr constant [4 x i8] c"%s\0A\00", align 1

; Function Attrs: noinline nounwind uwtable
define dso_local void @paixu(%struct.patient* %0, i32 %1) #0 {
  %3 = alloca %struct.patient*, align 8
  %4 = alloca i32, align 4
  %5 = alloca %struct.patient, align 4
  %6 = alloca i32, align 4
  %7 = alloca i32, align 4
  store %struct.patient* %0, %struct.patient** %3, align 8
  store i32 %1, i32* %4, align 4
  store i32 1, i32* %7, align 4
  br label %8

8:                                                ; preds = %64, %2
  %9 = load i32, i32* %7, align 4
  %10 = load i32, i32* %4, align 4
  %11 = icmp slt i32 %9, %10
  br i1 %11, label %12, label %67

12:                                               ; preds = %8
  store i32 0, i32* %6, align 4
  br label %13

13:                                               ; preds = %60, %12
  %14 = load i32, i32* %6, align 4
  %15 = load i32, i32* %4, align 4
  %16 = load i32, i32* %7, align 4
  %17 = sub nsw i32 %15, %16
  %18 = icmp slt i32 %14, %17
  br i1 %18, label %19, label %63

19:                                               ; preds = %13
  %20 = load %struct.patient*, %struct.patient** %3, align 8
  %21 = load i32, i32* %6, align 4
  %22 = sext i32 %21 to i64
  %23 = getelementptr inbounds %struct.patient, %struct.patient* %20, i64 %22
  %24 = getelementptr inbounds %struct.patient, %struct.patient* %23, i32 0, i32 1
  %25 = load i32, i32* %24, align 4
  %26 = load %struct.patient*, %struct.patient** %3, align 8
  %27 = load i32, i32* %6, align 4
  %28 = add nsw i32 %27, 1
  %29 = sext i32 %28 to i64
  %30 = getelementptr inbounds %struct.patient, %struct.patient* %26, i64 %29
  %31 = getelementptr inbounds %struct.patient, %struct.patient* %30, i32 0, i32 1
  %32 = load i32, i32* %31, align 4
  %33 = icmp slt i32 %25, %32
  br i1 %33, label %34, label %59

34:                                               ; preds = %19
  %35 = load %struct.patient*, %struct.patient** %3, align 8
  %36 = load i32, i32* %6, align 4
  %37 = sext i32 %36 to i64
  %38 = getelementptr inbounds %struct.patient, %struct.patient* %35, i64 %37
  %39 = bitcast %struct.patient* %5 to i8*
  %40 = bitcast %struct.patient* %38 to i8*
  call void @llvm.memcpy.p0i8.p0i8.i64(i8* align 4 %39, i8* align 4 %40, i64 16, i1 false)
  %41 = load %struct.patient*, %struct.patient** %3, align 8
  %42 = load i32, i32* %6, align 4
  %43 = sext i32 %42 to i64
  %44 = getelementptr inbounds %struct.patient, %struct.patient* %41, i64 %43
  %45 = load %struct.patient*, %struct.patient** %3, align 8
  %46 = load i32, i32* %6, align 4
  %47 = add nsw i32 %46, 1
  %48 = sext i32 %47 to i64
  %49 = getelementptr inbounds %struct.patient, %struct.patient* %45, i64 %48
  %50 = bitcast %struct.patient* %44 to i8*
  %51 = bitcast %struct.patient* %49 to i8*
  call void @llvm.memcpy.p0i8.p0i8.i64(i8* align 4 %50, i8* align 4 %51, i64 16, i1 false)
  %52 = load %struct.patient*, %struct.patient** %3, align 8
  %53 = load i32, i32* %6, align 4
  %54 = add nsw i32 %53, 1
  %55 = sext i32 %54 to i64
  %56 = getelementptr inbounds %struct.patient, %struct.patient* %52, i64 %55
  %57 = bitcast %struct.patient* %56 to i8*
  %58 = bitcast %struct.patient* %5 to i8*
  call void @llvm.memcpy.p0i8.p0i8.i64(i8* align 4 %57, i8* align 4 %58, i64 16, i1 false)
  br label %59

59:                                               ; preds = %34, %19
  br label %60

60:                                               ; preds = %59
  %61 = load i32, i32* %6, align 4
  %62 = add nsw i32 %61, 1
  store i32 %62, i32* %6, align 4
  br label %13

63:                                               ; preds = %13
  br label %64

64:                                               ; preds = %63
  %65 = load i32, i32* %7, align 4
  %66 = add nsw i32 %65, 1
  store i32 %66, i32* %7, align 4
  br label %8

67:                                               ; preds = %8
  ret void
}

; Function Attrs: argmemonly nounwind willreturn
declare void @llvm.memcpy.p0i8.p0i8.i64(i8* noalias nocapture writeonly, i8* noalias nocapture readonly, i64, i1 immarg) #1

; Function Attrs: noinline nounwind uwtable
define dso_local i32 @main() #0 {
  %1 = alloca i32, align 4
  %2 = alloca %struct.patient, align 4
  %3 = alloca [100 x %struct.patient], align 16
  %4 = alloca [100 x %struct.patient], align 16
  %5 = alloca i32, align 4
  %6 = alloca i32, align 4
  %7 = alloca i32, align 4
  %8 = alloca i32, align 4
  store i32 0, i32* %1, align 4
  store i32 0, i32* %7, align 4
  store i32 0, i32* %8, align 4
  %9 = call i32 (i8*, ...) @__isoc99_scanf(i8* getelementptr inbounds ([3 x i8], [3 x i8]* @.str, i64 0, i64 0), i32* %5)
  store i32 0, i32* %6, align 4
  br label %10

10:                                               ; preds = %39, %0
  %11 = load i32, i32* %6, align 4
  %12 = load i32, i32* %5, align 4
  %13 = icmp slt i32 %11, %12
  br i1 %13, label %14, label %42

14:                                               ; preds = %10
  %15 = getelementptr inbounds %struct.patient, %struct.patient* %2, i32 0, i32 0
  %16 = getelementptr inbounds [10 x i8], [10 x i8]* %15, i64 0, i64 0
  %17 = getelementptr inbounds %struct.patient, %struct.patient* %2, i32 0, i32 1
  %18 = call i32 (i8*, ...) @__isoc99_scanf(i8* getelementptr inbounds ([6 x i8], [6 x i8]* @.str.1, i64 0, i64 0), i8* %16, i32* %17)
  %19 = getelementptr inbounds %struct.patient, %struct.patient* %2, i32 0, i32 1
  %20 = load i32, i32* %19, align 4
  %21 = icmp sge i32 %20, 60
  br i1 %21, label %22, label %30

22:                                               ; preds = %14
  %23 = load i32, i32* %7, align 4
  %24 = sext i32 %23 to i64
  %25 = getelementptr inbounds [100 x %struct.patient], [100 x %struct.patient]* %3, i64 0, i64 %24
  %26 = bitcast %struct.patient* %25 to i8*
  %27 = bitcast %struct.patient* %2 to i8*
  call void @llvm.memcpy.p0i8.p0i8.i64(i8* align 16 %26, i8* align 4 %27, i64 16, i1 false)
  %28 = load i32, i32* %7, align 4
  %29 = add nsw i32 %28, 1
  store i32 %29, i32* %7, align 4
  br label %38

30:                                               ; preds = %14
  %31 = load i32, i32* %8, align 4
  %32 = sext i32 %31 to i64
  %33 = getelementptr inbounds [100 x %struct.patient], [100 x %struct.patient]* %4, i64 0, i64 %32
  %34 = bitcast %struct.patient* %33 to i8*
  %35 = bitcast %struct.patient* %2 to i8*
  call void @llvm.memcpy.p0i8.p0i8.i64(i8* align 16 %34, i8* align 4 %35, i64 16, i1 false)
  %36 = load i32, i32* %8, align 4
  %37 = add nsw i32 %36, 1
  store i32 %37, i32* %8, align 4
  br label %38

38:                                               ; preds = %30, %22
  br label %39

39:                                               ; preds = %38
  %40 = load i32, i32* %6, align 4
  %41 = add nsw i32 %40, 1
  store i32 %41, i32* %6, align 4
  br label %10

42:                                               ; preds = %10
  %43 = getelementptr inbounds [100 x %struct.patient], [100 x %struct.patient]* %3, i64 0, i64 0
  %44 = load i32, i32* %7, align 4
  call void @paixu(%struct.patient* %43, i32 %44)
  store i32 0, i32* %6, align 4
  br label %45

45:                                               ; preds = %56, %42
  %46 = load i32, i32* %6, align 4
  %47 = load i32, i32* %7, align 4
  %48 = icmp slt i32 %46, %47
  br i1 %48, label %49, label %59

49:                                               ; preds = %45
  %50 = load i32, i32* %6, align 4
  %51 = sext i32 %50 to i64
  %52 = getelementptr inbounds [100 x %struct.patient], [100 x %struct.patient]* %3, i64 0, i64 %51
  %53 = getelementptr inbounds %struct.patient, %struct.patient* %52, i32 0, i32 0
  %54 = getelementptr inbounds [10 x i8], [10 x i8]* %53, i64 0, i64 0
  %55 = call i32 (i8*, ...) @printf(i8* getelementptr inbounds ([4 x i8], [4 x i8]* @.str.2, i64 0, i64 0), i8* %54)
  br label %56

56:                                               ; preds = %49
  %57 = load i32, i32* %6, align 4
  %58 = add nsw i32 %57, 1
  store i32 %58, i32* %6, align 4
  br label %45

59:                                               ; preds = %45
  store i32 0, i32* %6, align 4
  br label %60

60:                                               ; preds = %71, %59
  %61 = load i32, i32* %6, align 4
  %62 = load i32, i32* %8, align 4
  %63 = icmp slt i32 %61, %62
  br i1 %63, label %64, label %74

64:                                               ; preds = %60
  %65 = load i32, i32* %6, align 4
  %66 = sext i32 %65 to i64
  %67 = getelementptr inbounds [100 x %struct.patient], [100 x %struct.patient]* %4, i64 0, i64 %66
  %68 = getelementptr inbounds %struct.patient, %struct.patient* %67, i32 0, i32 0
  %69 = getelementptr inbounds [10 x i8], [10 x i8]* %68, i64 0, i64 0
  %70 = call i32 (i8*, ...) @printf(i8* getelementptr inbounds ([4 x i8], [4 x i8]* @.str.2, i64 0, i64 0), i8* %69)
  br label %71

71:                                               ; preds = %64
  %72 = load i32, i32* %6, align 4
  %73 = add nsw i32 %72, 1
  store i32 %73, i32* %6, align 4
  br label %60

74:                                               ; preds = %60
  ret i32 0
}

declare dso_local i32 @__isoc99_scanf(i8*, ...) #2

declare dso_local i32 @printf(i8*, ...) #2


!llvm.module.flags = !{!0}
!llvm.ident = !{!1}

!0 = !{i32 1, !"wchar_size", i32 4}
!1 = !{!"clang version 10.0.0-4ubuntu1 "}
